target datalayout = "e-m:e-p270:32:32-p271:32:32-p272:64:64-i64:64-i128:128-f80:128-n8:16:32:64-S128"
target triple = "x86_64-pc-linux-gnu"

@.str.9 = private unnamed_addr constant [31 x i8] c"../openssl/test/fake_rsaprov.c\00", align 1
@.str.36 = private unnamed_addr constant [25 x i8] c"gctx = OPENSSL_malloc(1)\00", align 1

; Function Attrs: nounwind uwtable
define internal ptr @fake_rsa_gen_init(ptr noundef %0, i32 noundef %1, ptr noundef %2) #0 {
  %4 = alloca ptr, align 8
  %5 = alloca ptr, align 8
  %6 = alloca i32, align 4
  %7 = alloca ptr, align 8
  %8 = alloca ptr, align 8
  %9 = alloca i32, align 4
  store ptr %0, ptr %5, align 8, !tbaa !19
  store i32 %1, ptr %6, align 4, !tbaa !4
  store ptr %2, ptr %7, align 8, !tbaa !24
  call void @llvm.lifetime.start.p0(i64 8, ptr %8) #6
  store ptr null, ptr %8, align 8, !tbaa !22
  %10 = call noalias ptr @CRYPTO_malloc(i64 noundef 1, ptr noundef @.str.9, i32 noundef 240)
  store ptr %10, ptr %8, align 8, !tbaa !22
  %11 = call i32 @test_ptr(ptr noundef @.str.9, i32 noundef 240, ptr noundef @.str.36, ptr noundef %10)
  %12 = icmp ne i32 %11, 0
  br i1 %12, label %14, label %13

13:                                               ; preds = %3
  store ptr null, ptr %4, align 8
  store i32 1, ptr %9, align 4
  br label %17

14:                                               ; preds = %3
  %15 = load ptr, ptr %8, align 8, !tbaa !22
  store i8 1, ptr %15, align 1, !tbaa !30
  %16 = load ptr, ptr %8, align 8, !tbaa !22
  store ptr %16, ptr %4, align 8
  store i32 1, ptr %9, align 4
  br label %17

17:                                               ; preds = %14, %13
  call void @llvm.lifetime.end.p0(i64 8, ptr %8) #6
  %18 = load ptr, ptr %4, align 8
  ret ptr %18
}