; Function Attrs: nounwind uwtable
define internal noundef ptr @fake_rsa_gen_init(ptr readnone captures(none) %0, i32 %1, ptr readnone captures(none) %2) #1 {
  %4 = tail call noalias ptr @CRYPTO_malloc(i64 noundef 1, ptr noundef nonnull @.str.9, i32 noundef 240) #12
  %5 = tail call i32 @test_ptr(ptr noundef nonnull @.str.9, i32 noundef 240, ptr noundef nonnull @.str.36, ptr noundef %4) #12
  %.not = icmp eq i32 %5, 0
  br i1 %.not, label %7, label %6

6:                                                ; preds = %3
  store i8 1, ptr %4, align 1, !tbaa !14
  br label %7

7:                                                ; preds = %3, %6
  %.0 = phi ptr [ %4, %6 ], [ null, %3 ]
  ret ptr %.0
}